; Function Attrs: nounwind uwtable
define internal noundef i32 @pwdmodule_clear(ptr noundef %0) #0 {
  %2 = tail call ptr @PyModule_GetState(ptr noundef %0) #4
  %3 = load ptr, ptr %2, align 8, !tbaa !10
  %.not = icmp eq ptr %3, null
  br i1 %.not, label %5, label %4

4:                                                ; preds = %1
  store ptr null, ptr %2, align 8, !tbaa !10
  tail call void @_Py_DecRef(ptr noundef nonnull %3) #4
  br label %5

5:                                                ; preds = %4, %1
  ret i32 0
}